target datalayout = "e-m:e-p270:32:32-p271:32:32-p272:64:64-i64:64-i128:128-f80:128-n8:16:32:64-S128"
target triple = "x86_64-pc-linux-gnu"

%"class.llvm::SmallVectorBase" = type { ptr, i32, i32 }
%"class.llvm::BitVector" = type <{ %"class.llvm::SmallVector.47", i32, [4 x i8] }>
%"class.llvm::SmallVector.47" = type { %"class.llvm::SmallVectorImpl.48", %"struct.llvm::SmallVectorStorage.51" }
%"class.llvm::SmallVectorImpl.48" = type { %"class.llvm::SmallVectorTemplateBase.49" }
%"class.llvm::SmallVectorTemplateBase.49" = type { %"class.llvm::SmallVectorTemplateCommon.50" }
%"class.llvm::SmallVectorTemplateCommon.50" = type { %"class.llvm::SmallVectorBase" }
%"struct.llvm::SmallVectorStorage.51" = type { [48 x i8] }
%"class.llvm::ScheduleDAGMI" = type { %"class.llvm::ScheduleDAGInstrs", ptr, ptr, %"class.std::unique_ptr.133", %"class.std::vector.141", %"class.llvm::MachineInstrBundleIterator", %"class.llvm::MachineInstrBundleIterator", ptr, ptr }
%"class.llvm::ScheduleDAGInstrs" = type { %"class.llvm::ScheduleDAG", ptr, ptr, %"class.llvm::TargetSchedModel", i8, i8, i8, ptr, %"class.llvm::MachineInstrBundleIterator", %"class.llvm::MachineInstrBundleIterator", i32, [4 x i8], %"class.llvm::DenseMap.98", %"class.llvm::SparseMultiSet", %"class.llvm::SparseMultiSet", %"class.llvm::SparseMultiSet.106", %"class.llvm::SparseMultiSet.112", ptr, ptr, i32, ptr, %"class.llvm::ScheduleDAGTopologicalSort", %"class.std::vector.128", ptr, %"class.llvm::LiveRegUnits" }
%"class.llvm::ScheduleDAG" = type { ptr, ptr, ptr, ptr, ptr, ptr, %"class.std::vector.83", %"class.llvm::SUnit", %"class.llvm::SUnit" }
%"class.std::vector.83" = type { %"struct.std::_Vector_base.84" }
%"struct.std::_Vector_base.84" = type { %"struct.std::_Vector_base<llvm::SUnit, std::allocator<llvm::SUnit>>::_Vector_impl" }
%"struct.std::_Vector_base<llvm::SUnit, std::allocator<llvm::SUnit>>::_Vector_impl" = type { %"struct.std::_Vector_base<llvm::SUnit, std::allocator<llvm::SUnit>>::_Vector_impl_data" }
%"struct.std::_Vector_base<llvm::SUnit, std::allocator<llvm::SUnit>>::_Vector_impl_data" = type { ptr, ptr, ptr }
%"class.llvm::SUnit" = type <{ %union.anon, ptr, ptr, ptr, ptr, %"class.llvm::SmallVector.88", %"class.llvm::SmallVector.88", i32, i32, i32, i32, i32, i32, i32, i32, i32, i32, i32, i32, i16, i16, i16, i8, i8 }>
%union.anon = type { ptr }
%"class.llvm::SmallVector.88" = type { %"class.llvm::SmallVectorImpl.89", %"struct.llvm::SmallVectorStorage.92" }
%"class.llvm::SmallVectorImpl.89" = type { %"class.llvm::SmallVectorTemplateBase.90" }
%"class.llvm::SmallVectorTemplateBase.90" = type { %"class.llvm::SmallVectorTemplateCommon.91" }
%"class.llvm::SmallVectorTemplateCommon.91" = type { %"class.llvm::SmallVectorBase" }
%"struct.llvm::SmallVectorStorage.92" = type { [64 x i8] }
%"class.llvm::TargetSchedModel" = type { %"struct.llvm::MCSchedModel", %"class.llvm::InstrItineraryData", ptr, ptr, %"class.llvm::SmallVector.93", i32, i32 }
%"struct.llvm::MCSchedModel" = type { i32, i32, i32, i32, i32, i32, i8, i8, i8, i32, ptr, ptr, i32, i32, ptr, ptr }
%"class.llvm::InstrItineraryData" = type { %"struct.llvm::MCSchedModel", ptr, ptr, ptr, ptr }
%"class.llvm::SmallVector.93" = type { %"class.llvm::SmallVectorImpl.94", %"struct.llvm::SmallVectorStorage.97" }
%"class.llvm::SmallVectorImpl.94" = type { %"class.llvm::SmallVectorTemplateBase.95" }
%"class.llvm::SmallVectorTemplateBase.95" = type { %"class.llvm::SmallVectorTemplateCommon.96" }
%"class.llvm::SmallVectorTemplateCommon.96" = type { %"class.llvm::SmallVectorBase" }
%"struct.llvm::SmallVectorStorage.97" = type { [64 x i8] }
%"class.llvm::DenseMap.98" = type <{ ptr, i32, i32, i32, [4 x i8] }>
%"class.llvm::SparseMultiSet" = type { %"class.llvm::SmallVector.101", ptr, i32, [4 x i8], i32, i32 }
%"class.llvm::SmallVector.101" = type { %"class.llvm::SmallVectorImpl.102", %"struct.llvm::SmallVectorStorage.105" }
%"class.llvm::SmallVectorImpl.102" = type { %"class.llvm::SmallVectorTemplateBase.103" }
%"class.llvm::SmallVectorTemplateBase.103" = type { %"class.llvm::SmallVectorTemplateCommon.104" }
%"class.llvm::SmallVectorTemplateCommon.104" = type { %"class.llvm::SmallVectorBase" }
%"struct.llvm::SmallVectorStorage.105" = type { [192 x i8] }
%"class.llvm::SparseMultiSet.106" = type { %"class.llvm::SmallVector.107", ptr, i32, [4 x i8], i32, i32 }
%"class.llvm::SmallVector.107" = type { %"class.llvm::SmallVectorImpl.108", %"struct.llvm::SmallVectorStorage.111" }
%"class.llvm::SmallVectorImpl.108" = type { %"class.llvm::SmallVectorTemplateBase.109" }
%"class.llvm::SmallVectorTemplateBase.109" = type { %"class.llvm::SmallVectorTemplateCommon.110" }
%"class.llvm::SmallVectorTemplateCommon.110" = type { %"class.llvm::SmallVectorBase" }
%"struct.llvm::SmallVectorStorage.111" = type { [256 x i8] }
%"class.llvm::SparseMultiSet.112" = type { %"class.llvm::SmallVector.113", ptr, i32, [4 x i8], i32, i32 }
%"class.llvm::SmallVector.113" = type { %"class.llvm::SmallVectorImpl.114", %"struct.llvm::SmallVectorStorage.117" }
%"class.llvm::SmallVectorImpl.114" = type { %"class.llvm::SmallVectorTemplateBase.115" }
%"class.llvm::SmallVectorTemplateBase.115" = type { %"class.llvm::SmallVectorTemplateCommon.116" }
%"class.llvm::SmallVectorTemplateCommon.116" = type { %"class.llvm::SmallVectorBase" }
%"struct.llvm::SmallVectorStorage.117" = type { [320 x i8] }
%"class.llvm::ScheduleDAGTopologicalSort" = type { ptr, ptr, i8, %"class.llvm::SmallVector.118", %"class.std::vector.123", %"class.std::vector.123", %"class.llvm::BitVector" }
%"class.llvm::SmallVector.118" = type { %"class.llvm::SmallVectorImpl.119", %"struct.llvm::SmallVectorStorage.122" }
%"class.llvm::SmallVectorImpl.119" = type { %"class.llvm::SmallVectorTemplateBase.120" }
%"class.llvm::SmallVectorTemplateBase.120" = type { %"class.llvm::SmallVectorTemplateCommon.121" }
%"class.llvm::SmallVectorTemplateCommon.121" = type { %"class.llvm::SmallVectorBase" }
%"struct.llvm::SmallVectorStorage.122" = type { [256 x i8] }
%"class.std::vector.123" = type { %"struct.std::_Vector_base.124" }
%"struct.std::_Vector_base.124" = type { %"struct.std::_Vector_base<int, std::allocator<int>>::_Vector_impl" }
%"struct.std::_Vector_base<int, std::allocator<int>>::_Vector_impl" = type { %"struct.std::_Vector_base<int, std::allocator<int>>::_Vector_impl_data" }
%"struct.std::_Vector_base<int, std::allocator<int>>::_Vector_impl_data" = type { ptr, ptr, ptr }
%"class.std::vector.128" = type { %"struct.std::_Vector_base.129" }
%"struct.std::_Vector_base.129" = type { %"struct.std::_Vector_base<std::pair<llvm::MachineInstr *, llvm::MachineInstr *>, std::allocator<std::pair<llvm::MachineInstr *, llvm::MachineInstr *>>>::_Vector_impl" }
%"struct.std::_Vector_base<std::pair<llvm::MachineInstr *, llvm::MachineInstr *>, std::allocator<std::pair<llvm::MachineInstr *, llvm::MachineInstr *>>>::_Vector_impl" = type { %"struct.std::_Vector_base<std::pair<llvm::MachineInstr *, llvm::MachineInstr *>, std::allocator<std::pair<llvm::MachineInstr *, llvm::MachineInstr *>>>::_Vector_impl_data" }
%"struct.std::_Vector_base<std::pair<llvm::MachineInstr *, llvm::MachineInstr *>, std::allocator<std::pair<llvm::MachineInstr *, llvm::MachineInstr *>>>::_Vector_impl_data" = type { ptr, ptr, ptr }
%"class.llvm::LiveRegUnits" = type { ptr, %"class.llvm::BitVector" }
%"class.std::unique_ptr.133" = type { %"struct.std::__uniq_ptr_data.134" }
%"struct.std::__uniq_ptr_data.134" = type { %"class.std::__uniq_ptr_impl.135" }
%"class.std::__uniq_ptr_impl.135" = type { %"class.std::tuple.136" }
%"class.std::tuple.136" = type { %"struct.std::_Tuple_impl.137" }
%"struct.std::_Tuple_impl.137" = type { %"struct.std::_Head_base.140" }
%"struct.std::_Head_base.140" = type { ptr }
%"class.std::vector.141" = type { %"struct.std::_Vector_base.142" }
%"struct.std::_Vector_base.142" = type { %"struct.std::_Vector_base<std::unique_ptr<llvm::ScheduleDAGMutation>, std::allocator<std::unique_ptr<llvm::ScheduleDAGMutation>>>::_Vector_impl" }
%"struct.std::_Vector_base<std::unique_ptr<llvm::ScheduleDAGMutation>, std::allocator<std::unique_ptr<llvm::ScheduleDAGMutation>>>::_Vector_impl" = type { %"struct.std::_Vector_base<std::unique_ptr<llvm::ScheduleDAGMutation>, std::allocator<std::unique_ptr<llvm::ScheduleDAGMutation>>>::_Vector_impl_data" }
%"struct.std::_Vector_base<std::unique_ptr<llvm::ScheduleDAGMutation>, std::allocator<std::unique_ptr<llvm::ScheduleDAGMutation>>>::_Vector_impl_data" = type { ptr, ptr, ptr }
%"class.llvm::MachineInstrBundleIterator" = type { %"class.llvm::ilist_iterator" }
%"class.llvm::ilist_iterator" = type { ptr }

; Function Attrs: mustprogress nounwind uwtable
define linkonce_odr hidden noundef nonnull align 8 dereferenceable(8) ptr @_ZNSt10_Head_baseILm0EPN4llvm20MachineSchedStrategyELb0EE7_M_headERKS3_(ptr noundef nonnull align 8 dereferenceable(8) %0) #1 comdat align 2 {
  %2 = alloca ptr, align 8
  store ptr %0, ptr %2, align 8
  %3 = load ptr, ptr %2, align 8
  %4 = getelementptr inbounds nuw %"struct.std::_Head_base.140", ptr %3, i32 0, i32 0
  ret ptr %4
}

; Function Attrs: mustprogress nounwind uwtable
define linkonce_odr hidden noundef nonnull align 8 dereferenceable(8) ptr @_ZNSt11_Tuple_implILm0EJPN4llvm20MachineSchedStrategyESt14default_deleteIS1_EEE7_M_headERKS5_(ptr noundef nonnull align 8 dereferenceable(8) %0) #1 comdat align 2 {
  %2 = alloca ptr, align 8
  store ptr %0, ptr %2, align 8
  %3 = load ptr, ptr %2, align 8
  %4 = call noundef nonnull align 8 dereferenceable(8) ptr @_ZNSt10_Head_baseILm0EPN4llvm20MachineSchedStrategyELb0EE7_M_headERKS3_(ptr noundef nonnull align 8 dereferenceable(8) %3) #2
  ret ptr %4
}

; Function Attrs: mustprogress nounwind uwtable
define linkonce_odr noundef nonnull align 8 dereferenceable(8) ptr @_ZSt12__get_helperILm0EPN4llvm20MachineSchedStrategyEJSt14default_deleteIS1_EEERKT0_RKSt11_Tuple_implIXT_EJS5_DpT1_EE(ptr noundef nonnull align 8 dereferenceable(8) %0) #1 comdat {
  %2 = alloca ptr, align 8
  store ptr %0, ptr %2, align 8
  %3 = load ptr, ptr %2, align 8
  %4 = call noundef nonnull align 8 dereferenceable(8) ptr @_ZNSt11_Tuple_implILm0EJPN4llvm20MachineSchedStrategyESt14default_deleteIS1_EEE7_M_headERKS5_(ptr noundef nonnull align 8 dereferenceable(8) %3) #2
  ret ptr %4
}

; Function Attrs: mustprogress nounwind uwtable
define linkonce_odr noundef nonnull align 8 dereferenceable(8) ptr @_ZSt3getILm0EJPN4llvm20MachineSchedStrategyESt14default_deleteIS1_EEERKNSt13tuple_elementIXT_ESt5tupleIJDpT0_EEE4typeERKS9_(ptr noundef nonnull align 8 dereferenceable(8) %0) #1 comdat {
  %2 = alloca ptr, align 8
  store ptr %0, ptr %2, align 8
  %3 = load ptr, ptr %2, align 8
  %4 = call noundef nonnull align 8 dereferenceable(8) ptr @_ZSt12__get_helperILm0EPN4llvm20MachineSchedStrategyEJSt14default_deleteIS1_EEERKT0_RKSt11_Tuple_implIXT_EJS5_DpT1_EE(ptr noundef nonnull align 8 dereferenceable(8) %3) #2
  ret ptr %4
}

; Function Attrs: mustprogress nounwind uwtable
define linkonce_odr hidden noundef ptr @_ZNKSt15__uniq_ptr_implIN4llvm20MachineSchedStrategyESt14default_deleteIS1_EE6_M_ptrEv(ptr noundef nonnull align 8 dereferenceable(8) %0) #1 comdat align 2 {
  %2 = alloca ptr, align 8
  store ptr %0, ptr %2, align 8
  %3 = load ptr, ptr %2, align 8
  %4 = getelementptr inbounds nuw %"class.std::__uniq_ptr_impl.135", ptr %3, i32 0, i32 0
  %5 = call noundef nonnull align 8 dereferenceable(8) ptr @_ZSt3getILm0EJPN4llvm20MachineSchedStrategyESt14default_deleteIS1_EEERKNSt13tuple_elementIXT_ESt5tupleIJDpT0_EEE4typeERKS9_(ptr noundef nonnull align 8 dereferenceable(8) %4) #2
  %6 = load ptr, ptr %5, align 8
  ret ptr %6
}

; Function Attrs: mustprogress nounwind uwtable
define linkonce_odr hidden noundef ptr @_ZNKSt10unique_ptrIN4llvm20MachineSchedStrategyESt14default_deleteIS1_EE3getEv(ptr noundef nonnull align 8 dereferenceable(8) %0) #1 comdat align 2 {
  %2 = alloca ptr, align 8
  store ptr %0, ptr %2, align 8
  %3 = load ptr, ptr %2, align 8
  %4 = getelementptr inbounds nuw %"class.std::unique_ptr.133", ptr %3, i32 0, i32 0
  %5 = call noundef ptr @_ZNKSt15__uniq_ptr_implIN4llvm20MachineSchedStrategyESt14default_deleteIS1_EE6_M_ptrEv(ptr noundef nonnull align 8 dereferenceable(8) %4) #2
  ret ptr %5
}

; Function Attrs: mustprogress nounwind uwtable
define linkonce_odr hidden noundef ptr @_ZNKSt10unique_ptrIN4llvm20MachineSchedStrategyESt14default_deleteIS1_EEptEv(ptr noundef nonnull align 8 dereferenceable(8) %0) #1 comdat align 2 {
  %2 = alloca ptr, align 8
  store ptr %0, ptr %2, align 8
  %3 = load ptr, ptr %2, align 8
  %4 = call noundef ptr @_ZNKSt10unique_ptrIN4llvm20MachineSchedStrategyESt14default_deleteIS1_EE3getEv(ptr noundef nonnull align 8 dereferenceable(8) %3) #2
  ret ptr %4
}

; Function Attrs: mustprogress nounwind uwtable
define dso_local void @_ZN4llvm13ScheduleDAGMI11enterRegionEPNS_17MachineBasicBlockENS_26MachineInstrBundleIteratorINS_12MachineInstrELb0EEES5_j(ptr noundef nonnull align 8 dereferenceable(2704) %0, ptr noundef %1, ptr %2, ptr %3, i32 noundef %4) unnamed_addr #1 align 2 {
  %6 = alloca %"class.llvm::MachineInstrBundleIterator", align 8
  %7 = alloca %"class.llvm::MachineInstrBundleIterator", align 8
  %8 = alloca ptr, align 8
  %9 = alloca ptr, align 8
  %10 = alloca i32, align 4
  %11 = alloca %"class.llvm::MachineInstrBundleIterator", align 8
  %12 = alloca %"class.llvm::MachineInstrBundleIterator", align 8
  %13 = alloca %"class.llvm::MachineInstrBundleIterator", align 8
  %14 = alloca %"class.llvm::MachineInstrBundleIterator", align 8
  %15 = getelementptr inbounds nuw %"class.llvm::MachineInstrBundleIterator", ptr %6, i32 0, i32 0
  %16 = getelementptr inbounds nuw %"class.llvm::ilist_iterator", ptr %15, i32 0, i32 0
  store ptr %2, ptr %16, align 8
  %17 = getelementptr inbounds nuw %"class.llvm::MachineInstrBundleIterator", ptr %7, i32 0, i32 0
  %18 = getelementptr inbounds nuw %"class.llvm::ilist_iterator", ptr %17, i32 0, i32 0
  store ptr %3, ptr %18, align 8
  store ptr %0, ptr %8, align 8
  store ptr %1, ptr %9, align 8
  store i32 %4, ptr %10, align 4
  %19 = load ptr, ptr %8, align 8
  %20 = load ptr, ptr %9, align 8
  call void @llvm.memcpy.p0.p0.i64(ptr align 8 %11, ptr align 8 %6, i64 8, i1 false)
  call void @llvm.memcpy.p0.p0.i64(ptr align 8 %12, ptr align 8 %7, i64 8, i1 false)
  %21 = load i32, ptr %10, align 4
  %22 = getelementptr inbounds nuw %"class.llvm::MachineInstrBundleIterator", ptr %11, i32 0, i32 0
  %23 = getelementptr inbounds nuw %"class.llvm::ilist_iterator", ptr %22, i32 0, i32 0
  %24 = load ptr, ptr %23, align 8
  %25 = getelementptr inbounds nuw %"class.llvm::MachineInstrBundleIterator", ptr %12, i32 0, i32 0
  %26 = getelementptr inbounds nuw %"class.llvm::ilist_iterator", ptr %25, i32 0, i32 0
  %27 = load ptr, ptr %26, align 8
  call void @_ZN4llvm17ScheduleDAGInstrs11enterRegionEPNS_17MachineBasicBlockENS_26MachineInstrBundleIteratorINS_12MachineInstrELb0EEES5_j(ptr noundef nonnull align 8 dereferenceable(2624) %19, ptr noundef %20, ptr %24, ptr %27, i32 noundef %21)
  %28 = getelementptr inbounds nuw %"class.llvm::ScheduleDAGMI", ptr %19, i32 0, i32 3
  %29 = call noundef ptr @_ZNKSt10unique_ptrIN4llvm20MachineSchedStrategyESt14default_deleteIS1_EEptEv(ptr noundef nonnull align 8 dereferenceable(8) %28) #2
  call void @llvm.memcpy.p0.p0.i64(ptr align 8 %13, ptr align 8 %6, i64 8, i1 false)
  call void @llvm.memcpy.p0.p0.i64(ptr align 8 %14, ptr align 8 %7, i64 8, i1 false)
  %30 = load i32, ptr %10, align 4
  %31 = getelementptr inbounds nuw %"class.llvm::MachineInstrBundleIterator", ptr %13, i32 0, i32 0
  %32 = getelementptr inbounds nuw %"class.llvm::ilist_iterator", ptr %31, i32 0, i32 0
  %33 = load ptr, ptr %32, align 8
  %34 = getelementptr inbounds nuw %"class.llvm::MachineInstrBundleIterator", ptr %14, i32 0, i32 0
  %35 = getelementptr inbounds nuw %"class.llvm::ilist_iterator", ptr %34, i32 0, i32 0
  %36 = load ptr, ptr %35, align 8
  %37 = load ptr, ptr %29, align 8
  %38 = getelementptr inbounds ptr, ptr %37, i64 3
  %39 = load ptr, ptr %38, align 8
  call void %39(ptr noundef nonnull align 8 dereferenceable(8) %29, ptr %33, ptr %36, i32 noundef %30)
  ret void
}