; Function Attrs: mustprogress nounwind uwtable
define dso_local void @_ZN4llvm13ScheduleDAGMI11enterRegionEPNS_17MachineBasicBlockENS_26MachineInstrBundleIteratorINS_12MachineInstrELb0EEES5_j(ptr noundef nonnull align 8 dereferenceable(2704) %0, ptr noundef %1, ptr %2, ptr %3, i32 noundef %4) unnamed_addr #0 align 2 {
  tail call void @_ZN4llvm17ScheduleDAGInstrs11enterRegionEPNS_17MachineBasicBlockENS_26MachineInstrBundleIteratorINS_12MachineInstrELb0EEES5_j(ptr noundef nonnull align 8 dereferenceable(2624) %0, ptr noundef %1, ptr %2, ptr %3, i32 noundef %4) #28
  %6 = getelementptr inbounds nuw i8, ptr %0, i64 2640
  %7 = load ptr, ptr %6, align 8
  %8 = load ptr, ptr %7, align 8
  %9 = getelementptr inbounds nuw i8, ptr %8, i64 24
  %10 = load ptr, ptr %9, align 8
  tail call void %10(ptr noundef nonnull align 8 dereferenceable(8) %7, ptr %2, ptr %3, i32 noundef %4) #28
  ret void
}